; ModuleID = 'source-C-CXX/24/1267.cpp'
source_filename = "source-C-CXX/24/1267.cpp"
target datalayout = "e-m:e-p270:32:32-p271:32:32-p272:64:64-i64:64-f80:128-n8:16:32:64-S128"
target triple = "x86_64-pc-linux-gnu"

%"class.std::ios_base::Init" = type { i8 }
%"class.std::basic_istream" = type { i32 (...)**, i64, %"class.std::basic_ios" }
%"class.std::basic_ios" = type { %"class.std::ios_base", %"class.std::basic_ostream"*, i8, i8, %"class.std::basic_streambuf"*, %"class.std::ctype"*, %"class.std::num_put"*, %"class.std::num_get"* }
%"class.std::ios_base" = type { i32 (...)**, i64, i64, i32, i32, i32, %"struct.std::ios_base::_Callback_list"*, %"struct.std::ios_base::_Words", [8 x %"struct.std::ios_base::_Words"], i32, %"struct.std::ios_base::_Words"*, %"class.std::locale" }
%"struct.std::ios_base::_Callback_list" = type { %"struct.std::ios_base::_Callback_list"*, void (i32, %"class.std::ios_base"*, i32)*, i32, i32 }
%"struct.std::ios_base::_Words" = type { i8*, i64 }
%"class.std::locale" = type { %"class.std::locale::_Impl"* }
%"class.std::locale::_Impl" = type { i32, %"class.std::locale::facet"**, i64, %"class.std::locale::facet"**, i8** }
%"class.std::locale::facet" = type <{ i32 (...)**, i32, [4 x i8] }>
%"class.std::basic_ostream" = type { i32 (...)**, %"class.std::basic_ios" }
%"class.std::basic_streambuf" = type { i32 (...)**, i8*, i8*, i8*, i8*, i8*, i8*, %"class.std::locale" }
%"class.std::ctype" = type <{ %"class.std::locale::facet.base", [4 x i8], %struct.__locale_struct*, i8, [7 x i8], i32*, i32*, i16*, i8, [256 x i8], [256 x i8], i8, [6 x i8] }>
%"class.std::locale::facet.base" = type <{ i32 (...)**, i32 }>
%struct.__locale_struct = type { [13 x %struct.__locale_data*], i16*, i32*, i32*, [13 x i8*] }
%struct.__locale_data = type opaque
%"class.std::num_put" = type { %"class.std::locale::facet.base", [4 x i8] }
%"class.std::num_get" = type { %"class.std::locale::facet.base", [4 x i8] }

@_ZStL8__ioinit = internal global %"class.std::ios_base::Init" zeroinitializer, align 1
@__dso_handle = external hidden global i8
@_ZSt3cin = external global %"class.std::basic_istream", align 8
@_ZSt4cout = external global %"class.std::basic_ostream", align 8
@llvm.global_ctors = appending global [1 x { i32, void ()*, i8* }] [{ i32, void ()*, i8* } { i32 65535, void ()* @_GLOBAL__sub_I_1267.cpp, i8* null }]

declare void @_ZNSt8ios_base4InitC1Ev(%"class.std::ios_base::Init"* nonnull align 1 dereferenceable(1)) unnamed_addr #0

; Function Attrs: nounwind
declare void @_ZNSt8ios_base4InitD1Ev(%"class.std::ios_base::Init"* nonnull align 1 dereferenceable(1)) unnamed_addr #1

; Function Attrs: nofree nounwind
declare i32 @__cxa_atexit(void (i8*)*, i8*, i8*) local_unnamed_addr #2

; Function Attrs: mustprogress norecurse sspstrong uwtable
define dso_local i32 @main() local_unnamed_addr #3 {
  %1 = alloca i32, align 4
  %2 = alloca [100 x i32], align 16
  %3 = bitcast i32* %1 to i8*
  call void @llvm.lifetime.start.p0i8(i64 4, i8* nonnull %3) #7
  %4 = bitcast [100 x i32]* %2 to i8*
  call void @llvm.lifetime.start.p0i8(i64 400, i8* nonnull %4) #7
  call void @llvm.memset.p0i8.i64(i8* noundef nonnull align 16 dereferenceable(400) %4, i8 0, i64 400, i1 false)
  %5 = getelementptr inbounds [100 x i32], [100 x i32]* %2, i64 0, i64 0
  store i32 1, i32* %5, align 16
  %6 = call nonnull align 8 dereferenceable(16) %"class.std::basic_istream"* @_ZNSirsERi(%"class.std::basic_istream"* nonnull align 8 dereferenceable(16) @_ZSt3cin, i32* nonnull align 4 dereferenceable(4) %1)
  %7 = load i32, i32* %1, align 4, !tbaa !5
  %8 = icmp slt i32 %7, 1
  br i1 %8, label %106, label %9

9:                                                ; preds = %0, %102
  %10 = phi i32 [ %103, %102 ], [ 0, %0 ]
  %11 = phi i32 [ %104, %102 ], [ 1, %0 ]
  %12 = icmp slt i32 %10, 0
  br i1 %12, label %102, label %13

13:                                               ; preds = %9
  %14 = add nuw i32 %10, 1
  %15 = zext i32 %14 to i64
  %16 = icmp ult i32 %10, 7
  br i1 %16, label %69, label %17

17:                                               ; preds = %13
  %18 = and i64 %15, 4294967288
  %19 = add nsw i64 %18, -8
  %20 = lshr exact i64 %19, 3
  %21 = add nuw nsw i64 %20, 1
  %22 = and i64 %21, 1
  %23 = icmp eq i64 %19, 0
  br i1 %23, label %53, label %24

24:                                               ; preds = %17
  %25 = and i64 %21, 4611686018427387902
  br label %26

26:                                               ; preds = %26, %24
  %27 = phi i64 [ 0, %24 ], [ %50, %26 ]
  %28 = phi i64 [ %25, %24 ], [ %51, %26 ]
  %29 = getelementptr inbounds [100 x i32], [100 x i32]* %2, i64 0, i64 %27
  %30 = bitcast i32* %29 to <4 x i32>*
  %31 = load <4 x i32>, <4 x i32>* %30, align 16, !tbaa !5
  %32 = getelementptr inbounds i32, i32* %29, i64 4
  %33 = bitcast i32* %32 to <4 x i32>*
  %34 = load <4 x i32>, <4 x i32>* %33, align 16, !tbaa !5
  %35 = shl nsw <4 x i32> %31, <i32 1, i32 1, i32 1, i32 1>
  %36 = shl nsw <4 x i32> %34, <i32 1, i32 1, i32 1, i32 1>
  %37 = bitcast i32* %29 to <4 x i32>*
  store <4 x i32> %35, <4 x i32>* %37, align 16, !tbaa !5
  %38 = bitcast i32* %32 to <4 x i32>*
  store <4 x i32> %36, <4 x i32>* %38, align 16, !tbaa !5
  %39 = or i64 %27, 8
  %40 = getelementptr inbounds [100 x i32], [100 x i32]* %2, i64 0, i64 %39
  %41 = bitcast i32* %40 to <4 x i32>*
  %42 = load <4 x i32>, <4 x i32>* %41, align 16, !tbaa !5
  %43 = getelementptr inbounds i32, i32* %40, i64 4
  %44 = bitcast i32* %43 to <4 x i32>*
  %45 = load <4 x i32>, <4 x i32>* %44, align 16, !tbaa !5
  %46 = shl nsw <4 x i32> %42, <i32 1, i32 1, i32 1, i32 1>
  %47 = shl nsw <4 x i32> %45, <i32 1, i32 1, i32 1, i32 1>
  %48 = bitcast i32* %40 to <4 x i32>*
  store <4 x i32> %46, <4 x i32>* %48, align 16, !tbaa !5
  %49 = bitcast i32* %43 to <4 x i32>*
  store <4 x i32> %47, <4 x i32>* %49, align 16, !tbaa !5
  %50 = add nuw i64 %27, 16
  %51 = add i64 %28, -2
  %52 = icmp eq i64 %51, 0
  br i1 %52, label %53, label %26, !llvm.loop !9

53:                                               ; preds = %26, %17
  %54 = phi i64 [ 0, %17 ], [ %50, %26 ]
  %55 = icmp eq i64 %22, 0
  br i1 %55, label %67, label %56

56:                                               ; preds = %53
  %57 = getelementptr inbounds [100 x i32], [100 x i32]* %2, i64 0, i64 %54
  %58 = bitcast i32* %57 to <4 x i32>*
  %59 = load <4 x i32>, <4 x i32>* %58, align 16, !tbaa !5
  %60 = getelementptr inbounds i32, i32* %57, i64 4
  %61 = bitcast i32* %60 to <4 x i32>*
  %62 = load <4 x i32>, <4 x i32>* %61, align 16, !tbaa !5
  %63 = shl nsw <4 x i32> %59, <i32 1, i32 1, i32 1, i32 1>
  %64 = shl nsw <4 x i32> %62, <i32 1, i32 1, i32 1, i32 1>
  %65 = bitcast i32* %57 to <4 x i32>*
  store <4 x i32> %63, <4 x i32>* %65, align 16, !tbaa !5
  %66 = bitcast i32* %60 to <4 x i32>*
  store <4 x i32> %64, <4 x i32>* %66, align 16, !tbaa !5
  br label %67

67:                                               ; preds = %53, %56
  %68 = icmp eq i64 %18, %15
  br i1 %68, label %71, label %69

69:                                               ; preds = %13, %67
  %70 = phi i64 [ 0, %13 ], [ %18, %67 ]
  br label %76

71:                                               ; preds = %76, %67
  br i1 %12, label %102, label %72

72:                                               ; preds = %71
  %73 = zext i32 %10 to i64
  %74 = add nuw i32 %10, 1
  %75 = zext i32 %74 to i64
  br label %83

76:                                               ; preds = %69, %76
  %77 = phi i64 [ %81, %76 ], [ %70, %69 ]
  %78 = getelementptr inbounds [100 x i32], [100 x i32]* %2, i64 0, i64 %77
  %79 = load i32, i32* %78, align 4, !tbaa !5
  %80 = shl nsw i32 %79, 1
  store i32 %80, i32* %78, align 4, !tbaa !5
  %81 = add nuw nsw i64 %77, 1
  %82 = icmp eq i64 %81, %15
  br i1 %82, label %71, label %76, !llvm.loop !12

83:                                               ; preds = %72, %99
  %84 = phi i64 [ 0, %72 ], [ %100, %99 ]
  %85 = getelementptr inbounds [100 x i32], [100 x i32]* %2, i64 0, i64 %84
  %86 = load i32, i32* %85, align 4, !tbaa !5
  %87 = icmp sgt i32 %86, 9
  br i1 %87, label %90, label %88

88:                                               ; preds = %83
  %89 = add nuw nsw i64 %84, 1
  br label %99

90:                                               ; preds = %83
  %91 = add nsw i32 %86, -10
  store i32 %91, i32* %85, align 4, !tbaa !5
  %92 = add nuw nsw i64 %84, 1
  %93 = getelementptr inbounds [100 x i32], [100 x i32]* %2, i64 0, i64 %92
  %94 = load i32, i32* %93, align 4, !tbaa !5
  %95 = add nsw i32 %94, 1
  store i32 %95, i32* %93, align 4, !tbaa !5
  %96 = icmp eq i32 %94, 0
  %97 = icmp eq i64 %84, %73
  %98 = select i1 %96, i1 %97, i1 false
  br i1 %98, label %102, label %99

99:                                               ; preds = %88, %90
  %100 = phi i64 [ %89, %88 ], [ %92, %90 ]
  %101 = icmp eq i64 %100, %75
  br i1 %101, label %102, label %83, !llvm.loop !14

102:                                              ; preds = %99, %90, %9, %71
  %103 = phi i32 [ %10, %71 ], [ %10, %9 ], [ %10, %99 ], [ %74, %90 ]
  %104 = add nuw i32 %11, 1
  %105 = icmp eq i32 %11, %7
  br i1 %105, label %106, label %9, !llvm.loop !15

106:                                              ; preds = %102, %0
  br label %107

107:                                              ; preds = %106, %107
  %108 = phi i64 [ %109, %107 ], [ 99, %106 ]
  %109 = add nsw i64 %108, -1
  %110 = getelementptr inbounds [100 x i32], [100 x i32]* %2, i64 0, i64 %109
  %111 = load i32, i32* %110, align 4, !tbaa !5
  %112 = icmp eq i32 %111, 0
  br i1 %112, label %107, label %113, !llvm.loop !16

113:                                              ; preds = %107
  %114 = trunc i64 %108 to i32
  %115 = icmp sgt i32 %114, 0
  br i1 %115, label %116, label %126

116:                                              ; preds = %113
  %117 = and i64 %109, 4294967295
  br label %118

118:                                              ; preds = %116, %118
  %119 = phi i64 [ %117, %116 ], [ %125, %118 ]
  %120 = getelementptr inbounds [100 x i32], [100 x i32]* %2, i64 0, i64 %119
  %121 = load i32, i32* %120, align 4, !tbaa !5
  %122 = call nonnull align 8 dereferenceable(8) %"class.std::basic_ostream"* @_ZNSolsEi(%"class.std::basic_ostream"* nonnull align 8 dereferenceable(8) @_ZSt4cout, i32 %121)
  %123 = trunc i64 %119 to i32
  %124 = icmp sgt i32 %123, 0
  %125 = add nsw i64 %119, -1
  br i1 %124, label %118, label %126, !llvm.loop !17

126:                                              ; preds = %118, %113
  call void @llvm.lifetime.end.p0i8(i64 400, i8* nonnull %4) #7
  call void @llvm.lifetime.end.p0i8(i64 4, i8* nonnull %3) #7
  ret i32 0
}

; Function Attrs: argmemonly mustprogress nofree nosync nounwind willreturn
declare void @llvm.lifetime.start.p0i8(i64 immarg, i8* nocapture) #4

; Function Attrs: argmemonly mustprogress nofree nounwind willreturn writeonly
declare void @llvm.memset.p0i8.i64(i8* nocapture writeonly, i8, i64, i1 immarg) #5

declare nonnull align 8 dereferenceable(16) %"class.std::basic_istream"* @_ZNSirsERi(%"class.std::basic_istream"* nonnull align 8 dereferenceable(16), i32* nonnull align 4 dereferenceable(4)) local_unnamed_addr #0

declare nonnull align 8 dereferenceable(8) %"class.std::basic_ostream"* @_ZNSolsEi(%"class.std::basic_ostream"* nonnull align 8 dereferenceable(8), i32) local_unnamed_addr #0

; Function Attrs: argmemonly mustprogress nofree nosync nounwind willreturn
declare void @llvm.lifetime.end.p0i8(i64 immarg, i8* nocapture) #4

; Function Attrs: sspstrong uwtable
define internal void @_GLOBAL__sub_I_1267.cpp() #6 section ".text.startup" {
  tail call void @_ZNSt8ios_base4InitC1Ev(%"class.std::ios_base::Init"* nonnull align 1 dereferenceable(1) @_ZStL8__ioinit)
  %1 = tail call i32 @__cxa_atexit(void (i8*)* bitcast (void (%"class.std::ios_base::Init"*)* @_ZNSt8ios_base4InitD1Ev to void (i8*)*), i8* getelementptr inbounds (%"class.std::ios_base::Init", %"class.std::ios_base::Init"* @_ZStL8__ioinit, i64 0, i32 0), i8* nonnull @__dso_handle) #7
  ret void
}


!llvm.module.flags = !{!0, !1, !2, !3}
!llvm.ident = !{!4}

!0 = !{i32 1, !"wchar_size", i32 4}
!1 = !{i32 7, !"PIC Level", i32 2}
!2 = !{i32 7, !"PIE Level", i32 2}
!3 = !{i32 7, !"uwtable", i32 1}
!4 = !{!"clang version 13.0.0"}
!5 = !{!6, !6, i64 0}
!6 = !{!"int", !7, i64 0}
!7 = !{!"omnipotent char", !8, i64 0}
!8 = !{!"Simple C++ TBAA"}
!9 = distinct !{!9, !10, !11}
!10 = !{!"llvm.loop.mustprogress"}
!11 = !{!"llvm.loop.isvectorized", i32 1}
!12 = distinct !{!12, !10, !13, !11}
!13 = !{!"llvm.loop.unroll.runtime.disable"}
!14 = distinct !{!14, !10}
!15 = distinct !{!15, !10}
!16 = distinct !{!16, !10}
!17 = distinct !{!17, !10}
